target datalayout = "e-m:e-p270:32:32-p271:32:32-p272:64:64-i64:64-i128:128-f80:128-n8:16:32:64-S128"
target triple = "x86_64-pc-linux-gnu"

%struct.conf_module_st = type { ptr, ptr, ptr, ptr, i32, ptr }

@.str.1 = private unnamed_addr constant [34 x i8] c"../openssl/crypto/conf/conf_mod.c\00", align 1

; Function Attrs: nounwind uwtable
define internal void @module_free(ptr noundef %0) #0 {
  %2 = alloca ptr, align 8
  store ptr %0, ptr %2, align 8, !tbaa !27
  %3 = load ptr, ptr %2, align 8, !tbaa !27
  %4 = getelementptr inbounds nuw %struct.conf_module_st, ptr %3, i32 0, i32 0
  %5 = load ptr, ptr %4, align 8, !tbaa !38
  %6 = call i32 @DSO_free(ptr noundef %5)
  %7 = load ptr, ptr %2, align 8, !tbaa !27
  %8 = getelementptr inbounds nuw %struct.conf_module_st, ptr %7, i32 0, i32 1
  %9 = load ptr, ptr %8, align 8, !tbaa !45
  call void @CRYPTO_free(ptr noundef %9, ptr noundef @.str.1, i32 noundef 567)
  %10 = load ptr, ptr %2, align 8, !tbaa !27
  call void @CRYPTO_free(ptr noundef %10, ptr noundef @.str.1, i32 noundef 568)
  ret void
}