; Function Attrs: nounwind uwtable
define internal void @module_free(ptr noundef %0) #0 {
  %2 = load ptr, ptr %0, align 8, !tbaa !41
  %3 = tail call i32 @DSO_free(ptr noundef %2) #7
  %4 = getelementptr inbounds nuw i8, ptr %0, i64 8
  %5 = load ptr, ptr %4, align 8, !tbaa !22
  tail call void @CRYPTO_free(ptr noundef %5, ptr noundef nonnull @.str.1, i32 noundef 567) #7
  tail call void @CRYPTO_free(ptr noundef nonnull %0, ptr noundef nonnull @.str.1, i32 noundef 568) #7
  ret void
}